target datalayout = "e-m:e-p270:32:32-p271:32:32-p272:64:64-i64:64-i128:128-f80:128-n8:16:32:64-S128"
target triple = "x86_64-pc-linux-gnu"

; Function Attrs: alwaysinline nounwind uwtable
define internal void @do_bilin_1d_c(ptr noundef %0, i64 noundef %1, ptr noundef %2, i64 noundef %3, i32 noundef %4, i32 noundef %5, i64 noundef %6, i32 noundef %7, i32 noundef %8) #6 {
  %10 = alloca ptr, align 8
  %11 = alloca i64, align 8
  %12 = alloca ptr, align 8
  %13 = alloca i64, align 8
  %14 = alloca i32, align 4
  %15 = alloca i32, align 4
  %16 = alloca i64, align 8
  %17 = alloca i32, align 4
  %18 = alloca i32, align 4
  %19 = alloca ptr, align 8
  %20 = alloca ptr, align 8
  %21 = alloca i32, align 4
  store ptr %0, ptr %10, align 8, !tbaa !10
  store i64 %1, ptr %11, align 8, !tbaa !12
  store ptr %2, ptr %12, align 8, !tbaa !10
  store i64 %3, ptr %13, align 8, !tbaa !12
  store i32 %4, ptr %14, align 4, !tbaa !19
  store i32 %5, ptr %15, align 4, !tbaa !19
  store i64 %6, ptr %16, align 8, !tbaa !12
  store i32 %7, ptr %17, align 4, !tbaa !19
  store i32 %8, ptr %18, align 4, !tbaa !19
  call void @llvm.lifetime.start.p0(i64 8, ptr %19) #9
  %22 = load ptr, ptr %10, align 8, !tbaa !10
  store ptr %22, ptr %19, align 8, !tbaa !14
  call void @llvm.lifetime.start.p0(i64 8, ptr %20) #9
  %23 = load ptr, ptr %12, align 8, !tbaa !10
  store ptr %23, ptr %20, align 8, !tbaa !14
  %24 = load i64, ptr %11, align 8, !tbaa !12
  %25 = udiv i64 %24, 2
  store i64 %25, ptr %11, align 8, !tbaa !12
  %26 = load i64, ptr %13, align 8, !tbaa !12
  %27 = udiv i64 %26, 2
  store i64 %27, ptr %13, align 8, !tbaa !12
  br label %28

28:                                               ; preds = %120, %9
  call void @llvm.lifetime.start.p0(i64 4, ptr %21) #9
  store i32 0, ptr %21, align 4, !tbaa !19
  br label %29

29:                                               ; preds = %110, %28
  %30 = load i32, ptr %21, align 4, !tbaa !19
  %31 = load i32, ptr %14, align 4, !tbaa !19
  %32 = icmp slt i32 %30, %31
  br i1 %32, label %33, label %113

33:                                               ; preds = %29
  %34 = load i32, ptr %18, align 4, !tbaa !19
  %35 = icmp ne i32 %34, 0
  br i1 %35, label %36, label %77

36:                                               ; preds = %33
  %37 = load ptr, ptr %19, align 8, !tbaa !14
  %38 = load i32, ptr %21, align 4, !tbaa !19
  %39 = sext i32 %38 to i64
  %40 = getelementptr inbounds i16, ptr %37, i64 %39
  %41 = load i16, ptr %40, align 2, !tbaa !17
  %42 = zext i16 %41 to i32
  %43 = load ptr, ptr %20, align 8, !tbaa !14
  %44 = load i32, ptr %21, align 4, !tbaa !19
  %45 = sext i32 %44 to i64
  %46 = getelementptr inbounds i16, ptr %43, i64 %45
  %47 = load i16, ptr %46, align 2, !tbaa !17
  %48 = zext i16 %47 to i32
  %49 = load i32, ptr %17, align 4, !tbaa !19
  %50 = load ptr, ptr %20, align 8, !tbaa !14
  %51 = load i32, ptr %21, align 4, !tbaa !19
  %52 = sext i32 %51 to i64
  %53 = load i64, ptr %16, align 8, !tbaa !12
  %54 = add nsw i64 %52, %53
  %55 = getelementptr inbounds i16, ptr %50, i64 %54
  %56 = load i16, ptr %55, align 2, !tbaa !17
  %57 = zext i16 %56 to i32
  %58 = load ptr, ptr %20, align 8, !tbaa !14
  %59 = load i32, ptr %21, align 4, !tbaa !19
  %60 = sext i32 %59 to i64
  %61 = getelementptr inbounds i16, ptr %58, i64 %60
  %62 = load i16, ptr %61, align 2, !tbaa !17
  %63 = zext i16 %62 to i32
  %64 = sub nsw i32 %57, %63
  %65 = mul nsw i32 %49, %64
  %66 = add nsw i32 %65, 8
  %67 = ashr i32 %66, 4
  %68 = add nsw i32 %48, %67
  %69 = add nsw i32 %42, %68
  %70 = add nsw i32 %69, 1
  %71 = ashr i32 %70, 1
  %72 = trunc i32 %71 to i16
  %73 = load ptr, ptr %19, align 8, !tbaa !14
  %74 = load i32, ptr %21, align 4, !tbaa !19
  %75 = sext i32 %74 to i64
  %76 = getelementptr inbounds i16, ptr %73, i64 %75
  store i16 %72, ptr %76, align 2, !tbaa !17
  br label %109

77:                                               ; preds = %33
  %78 = load ptr, ptr %20, align 8, !tbaa !14
  %79 = load i32, ptr %21, align 4, !tbaa !19
  %80 = sext i32 %79 to i64
  %81 = getelementptr inbounds i16, ptr %78, i64 %80
  %82 = load i16, ptr %81, align 2, !tbaa !17
  %83 = zext i16 %82 to i32
  %84 = load i32, ptr %17, align 4, !tbaa !19
  %85 = load ptr, ptr %20, align 8, !tbaa !14
  %86 = load i32, ptr %21, align 4, !tbaa !19
  %87 = sext i32 %86 to i64
  %88 = load i64, ptr %16, align 8, !tbaa !12
  %89 = add nsw i64 %87, %88
  %90 = getelementptr inbounds i16, ptr %85, i64 %89
  %91 = load i16, ptr %90, align 2, !tbaa !17
  %92 = zext i16 %91 to i32
  %93 = load ptr, ptr %20, align 8, !tbaa !14
  %94 = load i32, ptr %21, align 4, !tbaa !19
  %95 = sext i32 %94 to i64
  %96 = getelementptr inbounds i16, ptr %93, i64 %95
  %97 = load i16, ptr %96, align 2, !tbaa !17
  %98 = zext i16 %97 to i32
  %99 = sub nsw i32 %92, %98
  %100 = mul nsw i32 %84, %99
  %101 = add nsw i32 %100, 8
  %102 = ashr i32 %101, 4
  %103 = add nsw i32 %83, %102
  %104 = trunc i32 %103 to i16
  %105 = load ptr, ptr %19, align 8, !tbaa !14
  %106 = load i32, ptr %21, align 4, !tbaa !19
  %107 = sext i32 %106 to i64
  %108 = getelementptr inbounds i16, ptr %105, i64 %107
  store i16 %104, ptr %108, align 2, !tbaa !17
  br label %109

109:                                              ; preds = %77, %36
  br label %110

110:                                              ; preds = %109
  %111 = load i32, ptr %21, align 4, !tbaa !19
  %112 = add nsw i32 %111, 1
  store i32 %112, ptr %21, align 4, !tbaa !19
  br label %29, !llvm.loop !106

113:                                              ; preds = %29
  %114 = load i64, ptr %11, align 8, !tbaa !12
  %115 = load ptr, ptr %19, align 8, !tbaa !14
  %116 = getelementptr inbounds i16, ptr %115, i64 %114
  store ptr %116, ptr %19, align 8, !tbaa !14
  %117 = load i64, ptr %13, align 8, !tbaa !12
  %118 = load ptr, ptr %20, align 8, !tbaa !14
  %119 = getelementptr inbounds i16, ptr %118, i64 %117
  store ptr %119, ptr %20, align 8, !tbaa !14
  call void @llvm.lifetime.end.p0(i64 4, ptr %21) #9
  br label %120

120:                                              ; preds = %113
  %121 = load i32, ptr %15, align 4, !tbaa !19
  %122 = add nsw i32 %121, -1
  store i32 %122, ptr %15, align 4, !tbaa !19
  %123 = icmp ne i32 %122, 0
  br i1 %123, label %28, label %124, !llvm.loop !107

124:                                              ; preds = %120
  call void @llvm.lifetime.end.p0(i64 8, ptr %20) #9
  call void @llvm.lifetime.end.p0(i64 8, ptr %19) #9
  ret void
}

; Function Attrs: noinline nounwind uwtable
define internal void @put_bilin_1d_v_c(ptr noundef %0, i64 noundef %1, ptr noundef %2, i64 noundef %3, i32 noundef %4, i32 noundef %5, i32 noundef %6) #7 {
  %8 = alloca ptr, align 8
  %9 = alloca i64, align 8
  %10 = alloca ptr, align 8
  %11 = alloca i64, align 8
  %12 = alloca i32, align 4
  %13 = alloca i32, align 4
  %14 = alloca i32, align 4
  store ptr %0, ptr %8, align 8, !tbaa !10
  store i64 %1, ptr %9, align 8, !tbaa !12
  store ptr %2, ptr %10, align 8, !tbaa !10
  store i64 %3, ptr %11, align 8, !tbaa !12
  store i32 %4, ptr %12, align 4, !tbaa !19
  store i32 %5, ptr %13, align 4, !tbaa !19
  store i32 %6, ptr %14, align 4, !tbaa !19
  %15 = load ptr, ptr %8, align 8, !tbaa !10
  %16 = load i64, ptr %9, align 8, !tbaa !12
  %17 = load ptr, ptr %10, align 8, !tbaa !10
  %18 = load i64, ptr %11, align 8, !tbaa !12
  %19 = load i32, ptr %12, align 4, !tbaa !19
  %20 = load i32, ptr %13, align 4, !tbaa !19
  %21 = load i64, ptr %11, align 8, !tbaa !12
  %22 = udiv i64 %21, 2
  %23 = load i32, ptr %14, align 4, !tbaa !19
  call void @do_bilin_1d_c(ptr noundef %15, i64 noundef %16, ptr noundef %17, i64 noundef %18, i32 noundef %19, i32 noundef %20, i64 noundef %22, i32 noundef %23, i32 noundef 0)
  ret void
}