; Function Attrs: nofree noinline norecurse nosync nounwind memory(argmem: readwrite) uwtable
define internal fastcc void @put_bilin_1d_v_c(ptr noundef writeonly captures(none) %0, i64 noundef %1, ptr noundef readonly captures(none) %2, i64 noundef %3, i32 noundef range(i32 4, 65) %4, i32 noundef %5, i32 noundef %6) unnamed_addr #8 {
  %8 = lshr i64 %3, 1
  %9 = lshr i64 %1, 1
  %wide.trip.count = zext nneg i32 %4 to i64
  br label %10

10:                                               ; preds = %26, %7
  %.036.i = phi i32 [ %5, %7 ], [ %28, %26 ]
  %.035.i = phi ptr [ %0, %7 ], [ %27, %26 ]
  %.034.i = phi ptr [ %2, %7 ], [ %11, %26 ]
  %11 = getelementptr inbounds nuw i16, ptr %.034.i, i64 %8
  br label %12

12:                                               ; preds = %10, %12
  %indvars.iv = phi i64 [ 0, %10 ], [ %indvars.iv.next, %12 ]
  %13 = getelementptr inbounds nuw i16, ptr %.034.i, i64 %indvars.iv
  %14 = load i16, ptr %13, align 2, !tbaa !9
  %15 = zext i16 %14 to i32
  %16 = getelementptr inbounds nuw i16, ptr %11, i64 %indvars.iv
  %17 = load i16, ptr %16, align 2, !tbaa !9
  %18 = zext i16 %17 to i32
  %19 = sub nsw i32 %18, %15
  %20 = mul nsw i32 %19, %6
  %21 = add nsw i32 %20, 8
  %22 = lshr i32 %21, 4
  %23 = trunc i32 %22 to i16
  %24 = add i16 %14, %23
  %25 = getelementptr inbounds nuw i16, ptr %.035.i, i64 %indvars.iv
  store i16 %24, ptr %25, align 2, !tbaa !9
  %indvars.iv.next = add nuw nsw i64 %indvars.iv, 1
  %exitcond.not = icmp eq i64 %indvars.iv.next, %wide.trip.count
  br i1 %exitcond.not, label %26, label %12, !llvm.loop !141

26:                                               ; preds = %12
  %27 = getelementptr inbounds nuw i16, ptr %.035.i, i64 %9
  %28 = add nsw i32 %.036.i, -1
  %.not.i = icmp eq i32 %28, 0
  br i1 %.not.i, label %do_bilin_1d_c.exit, label %10, !llvm.loop !142

do_bilin_1d_c.exit:                               ; preds = %26
  ret void
}